target datalayout = "e-m:e-p270:32:32-p271:32:32-p272:64:64-i64:64-i128:128-f80:128-n8:16:32:64-S128"
target triple = "x86_64-pc-linux-gnu"

; Function Attrs: inlinehint mustprogress nounwind uwtable
define linkonce_odr noundef nonnull align 4 dereferenceable(4) ptr @_ZSt3minIiERKT_S2_S2_(ptr noundef nonnull align 4 dereferenceable(4) %0, ptr noundef nonnull align 4 dereferenceable(4) %1) #2 comdat {
  %3 = alloca ptr, align 8
  %4 = alloca ptr, align 8
  %5 = alloca ptr, align 8
  store ptr %0, ptr %4, align 8, !tbaa !15
  store ptr %1, ptr %5, align 8, !tbaa !15
  %6 = load ptr, ptr %5, align 8, !tbaa !15
  %7 = load i32, ptr %6, align 4, !tbaa !9
  %8 = load ptr, ptr %4, align 8, !tbaa !15
  %9 = load i32, ptr %8, align 4, !tbaa !9
  %10 = icmp slt i32 %7, %9
  br i1 %10, label %11, label %13

11:                                               ; preds = %2
  %12 = load ptr, ptr %5, align 8, !tbaa !15
  store ptr %12, ptr %3, align 8
  br label %15

13:                                               ; preds = %2
  %14 = load ptr, ptr %4, align 8, !tbaa !15
  store ptr %14, ptr %3, align 8
  br label %15

15:                                               ; preds = %13, %11
  %16 = load ptr, ptr %3, align 8
  ret ptr %16
}

; Function Attrs: inlinehint mustprogress nounwind uwtable
define linkonce_odr noundef nonnull align 4 dereferenceable(4) ptr @_ZSt3maxIiERKT_S2_S2_(ptr noundef nonnull align 4 dereferenceable(4) %0, ptr noundef nonnull align 4 dereferenceable(4) %1) #2 comdat {
  %3 = alloca ptr, align 8
  %4 = alloca ptr, align 8
  %5 = alloca ptr, align 8
  store ptr %0, ptr %4, align 8, !tbaa !15
  store ptr %1, ptr %5, align 8, !tbaa !15
  %6 = load ptr, ptr %4, align 8, !tbaa !15
  %7 = load i32, ptr %6, align 4, !tbaa !9
  %8 = load ptr, ptr %5, align 8, !tbaa !15
  %9 = load i32, ptr %8, align 4, !tbaa !9
  %10 = icmp slt i32 %7, %9
  br i1 %10, label %11, label %13

11:                                               ; preds = %2
  %12 = load ptr, ptr %5, align 8, !tbaa !15
  store ptr %12, ptr %3, align 8
  br label %15

13:                                               ; preds = %2
  %14 = load ptr, ptr %4, align 8, !tbaa !15
  store ptr %14, ptr %3, align 8
  br label %15

15:                                               ; preds = %13, %11
  %16 = load ptr, ptr %3, align 8
  ret ptr %16
}

; Function Attrs: mustprogress nounwind uwtable
define hidden void @_ZN4ncnn17yuv420sp2rgb_halfEPKhiiPh(ptr noundef %0, i32 noundef %1, i32 noundef %2, ptr noundef %3) #3 {
  %5 = alloca ptr, align 8
  %6 = alloca i32, align 4
  %7 = alloca i32, align 4
  %8 = alloca ptr, align 8
  %9 = alloca ptr, align 8
  %10 = alloca ptr, align 8
  %11 = alloca ptr, align 8
  %12 = alloca i32, align 4
  %13 = alloca i32, align 4
  %14 = alloca i32, align 4
  %15 = alloca i32, align 4
  %16 = alloca i32, align 4
  %17 = alloca i32, align 4
  %18 = alloca i32, align 4
  %19 = alloca i32, align 4
  %20 = alloca i32, align 4
  %21 = alloca i32, align 4
  %22 = alloca i32, align 4
  %23 = alloca i32, align 4
  %24 = alloca i32, align 4
  %25 = alloca i32, align 4
  %26 = alloca i32, align 4
  %27 = alloca i32, align 4
  %28 = alloca i32, align 4
  %29 = alloca i32, align 4
  %30 = alloca i32, align 4
  %31 = alloca i32, align 4
  store ptr %0, ptr %5, align 8, !tbaa !4
  store i32 %1, ptr %6, align 4, !tbaa !9
  store i32 %2, ptr %7, align 4, !tbaa !9
  store ptr %3, ptr %8, align 8, !tbaa !4
  call void @llvm.lifetime.start.p0(i64 8, ptr %9) #9
  %32 = load ptr, ptr %5, align 8, !tbaa !4
  %33 = load i32, ptr %6, align 4, !tbaa !9
  %34 = load i32, ptr %7, align 4, !tbaa !9
  %35 = mul nsw i32 %33, %34
  %36 = sext i32 %35 to i64
  %37 = getelementptr inbounds i8, ptr %32, i64 %36
  store ptr %37, ptr %9, align 8, !tbaa !4
  call void @llvm.lifetime.start.p0(i64 8, ptr %10) #9
  %38 = load ptr, ptr %5, align 8, !tbaa !4
  store ptr %38, ptr %10, align 8, !tbaa !4
  call void @llvm.lifetime.start.p0(i64 8, ptr %11) #9
  %39 = load ptr, ptr %5, align 8, !tbaa !4
  %40 = load i32, ptr %6, align 4, !tbaa !9
  %41 = sext i32 %40 to i64
  %42 = getelementptr inbounds i8, ptr %39, i64 %41
  store ptr %42, ptr %11, align 8, !tbaa !4
  call void @llvm.lifetime.start.p0(i64 4, ptr %12) #9
  %43 = load i32, ptr %7, align 4, !tbaa !9
  %44 = sdiv i32 %43, 2
  store i32 %44, ptr %12, align 4, !tbaa !9
  call void @llvm.lifetime.start.p0(i64 4, ptr %13) #9
  %45 = load i32, ptr %6, align 4, !tbaa !9
  %46 = sdiv i32 %45, 2
  store i32 %46, ptr %13, align 4, !tbaa !9
  call void @llvm.lifetime.start.p0(i64 4, ptr %14) #9
  store i32 0, ptr %14, align 4, !tbaa !9
  br label %47

47:                                               ; preds = %145, %4
  %48 = load i32, ptr %14, align 4, !tbaa !9
  %49 = load i32, ptr %12, align 4, !tbaa !9
  %50 = icmp slt i32 %48, %49
  br i1 %50, label %52, label %51

51:                                               ; preds = %47
  store i32 2, ptr %15, align 4
  call void @llvm.lifetime.end.p0(i64 4, ptr %14) #9
  br label %148

52:                                               ; preds = %47
  call void @llvm.lifetime.start.p0(i64 4, ptr %16) #9
  store i32 0, ptr %16, align 4, !tbaa !9
  br label %53

53:                                               ; preds = %136, %52
  %54 = load i32, ptr %16, align 4, !tbaa !9
  %55 = load i32, ptr %13, align 4, !tbaa !9
  %56 = icmp slt i32 %54, %55
  br i1 %56, label %58, label %57

57:                                               ; preds = %53
  store i32 5, ptr %15, align 4
  call void @llvm.lifetime.end.p0(i64 4, ptr %16) #9
  br label %139

58:                                               ; preds = %53
  call void @llvm.lifetime.start.p0(i64 4, ptr %17) #9
  %59 = load ptr, ptr %10, align 8, !tbaa !4
  %60 = getelementptr inbounds i8, ptr %59, i64 0
  %61 = load i8, ptr %60, align 1, !tbaa !11
  %62 = zext i8 %61 to i32
  %63 = load ptr, ptr %10, align 8, !tbaa !4
  %64 = getelementptr inbounds i8, ptr %63, i64 1
  %65 = load i8, ptr %64, align 1, !tbaa !11
  %66 = zext i8 %65 to i32
  %67 = add nsw i32 %62, %66
  %68 = load ptr, ptr %11, align 8, !tbaa !4
  %69 = getelementptr inbounds i8, ptr %68, i64 2
  %70 = load i8, ptr %69, align 1, !tbaa !11
  %71 = zext i8 %70 to i32
  %72 = add nsw i32 %67, %71
  %73 = load ptr, ptr %11, align 8, !tbaa !4
  %74 = getelementptr inbounds i8, ptr %73, i64 1
  %75 = load i8, ptr %74, align 1, !tbaa !11
  %76 = zext i8 %75 to i32
  %77 = add nsw i32 %72, %76
  %78 = shl i32 %77, 4
  store i32 %78, ptr %17, align 4, !tbaa !9
  call void @llvm.lifetime.start.p0(i64 4, ptr %18) #9
  %79 = load ptr, ptr %9, align 8, !tbaa !4
  %80 = getelementptr inbounds i8, ptr %79, i64 0
  %81 = load i8, ptr %80, align 1, !tbaa !11
  %82 = zext i8 %81 to i32
  %83 = sub nsw i32 %82, 128
  store i32 %83, ptr %18, align 4, !tbaa !9
  call void @llvm.lifetime.start.p0(i64 4, ptr %19) #9
  %84 = load ptr, ptr %9, align 8, !tbaa !4
  %85 = getelementptr inbounds i8, ptr %84, i64 1
  %86 = load i8, ptr %85, align 1, !tbaa !11
  %87 = zext i8 %86 to i32
  %88 = sub nsw i32 %87, 128
  store i32 %88, ptr %19, align 4, !tbaa !9
  call void @llvm.lifetime.start.p0(i64 4, ptr %20) #9
  %89 = load i32, ptr %18, align 4, !tbaa !9
  %90 = mul nsw i32 90, %89
  store i32 %90, ptr %20, align 4, !tbaa !9
  call void @llvm.lifetime.start.p0(i64 4, ptr %21) #9
  %91 = load i32, ptr %18, align 4, !tbaa !9
  %92 = mul nsw i32 -46, %91
  %93 = load i32, ptr %19, align 4, !tbaa !9
  %94 = mul nsw i32 -22, %93
  %95 = add nsw i32 %92, %94
  store i32 %95, ptr %21, align 4, !tbaa !9
  call void @llvm.lifetime.start.p0(i64 4, ptr %22) #9
  %96 = load i32, ptr %19, align 4, !tbaa !9
  %97 = mul nsw i32 113, %96
  store i32 %97, ptr %22, align 4, !tbaa !9
  call void @llvm.lifetime.start.p0(i64 4, ptr %23) #9
  %98 = load i32, ptr %17, align 4, !tbaa !9
  %99 = load i32, ptr %20, align 4, !tbaa !9
  %100 = add nsw i32 %98, %99
  %101 = ashr i32 %100, 6
  store i32 %101, ptr %23, align 4, !tbaa !9
  call void @llvm.lifetime.start.p0(i64 4, ptr %24) #9
  store i32 0, ptr %24, align 4, !tbaa !9
  %102 = call noundef nonnull align 4 dereferenceable(4) ptr @_ZSt3maxIiERKT_S2_S2_(ptr noundef nonnull align 4 dereferenceable(4) %23, ptr noundef nonnull align 4 dereferenceable(4) %24)
  call void @llvm.lifetime.start.p0(i64 4, ptr %25) #9
  store i32 255, ptr %25, align 4, !tbaa !9
  %103 = call noundef nonnull align 4 dereferenceable(4) ptr @_ZSt3minIiERKT_S2_S2_(ptr noundef nonnull align 4 dereferenceable(4) %102, ptr noundef nonnull align 4 dereferenceable(4) %25)
  %104 = load i32, ptr %103, align 4, !tbaa !9
  %105 = trunc i32 %104 to i8
  %106 = load ptr, ptr %8, align 8, !tbaa !4
  %107 = getelementptr inbounds i8, ptr %106, i64 0
  store i8 %105, ptr %107, align 1, !tbaa !11
  call void @llvm.lifetime.end.p0(i64 4, ptr %25) #9
  call void @llvm.lifetime.end.p0(i64 4, ptr %24) #9
  call void @llvm.lifetime.end.p0(i64 4, ptr %23) #9
  call void @llvm.lifetime.start.p0(i64 4, ptr %26) #9
  %108 = load i32, ptr %17, align 4, !tbaa !9
  %109 = load i32, ptr %21, align 4, !tbaa !9
  %110 = add nsw i32 %108, %109
  %111 = ashr i32 %110, 6
  store i32 %111, ptr %26, align 4, !tbaa !9
  call void @llvm.lifetime.start.p0(i64 4, ptr %27) #9
  store i32 0, ptr %27, align 4, !tbaa !9
  %112 = call noundef nonnull align 4 dereferenceable(4) ptr @_ZSt3maxIiERKT_S2_S2_(ptr noundef nonnull align 4 dereferenceable(4) %26, ptr noundef nonnull align 4 dereferenceable(4) %27)
  call void @llvm.lifetime.start.p0(i64 4, ptr %28) #9
  store i32 255, ptr %28, align 4, !tbaa !9
  %113 = call noundef nonnull align 4 dereferenceable(4) ptr @_ZSt3minIiERKT_S2_S2_(ptr noundef nonnull align 4 dereferenceable(4) %112, ptr noundef nonnull align 4 dereferenceable(4) %28)
  %114 = load i32, ptr %113, align 4, !tbaa !9
  %115 = trunc i32 %114 to i8
  %116 = load ptr, ptr %8, align 8, !tbaa !4
  %117 = getelementptr inbounds i8, ptr %116, i64 1
  store i8 %115, ptr %117, align 1, !tbaa !11
  call void @llvm.lifetime.end.p0(i64 4, ptr %28) #9
  call void @llvm.lifetime.end.p0(i64 4, ptr %27) #9
  call void @llvm.lifetime.end.p0(i64 4, ptr %26) #9
  call void @llvm.lifetime.start.p0(i64 4, ptr %29) #9
  %118 = load i32, ptr %17, align 4, !tbaa !9
  %119 = load i32, ptr %22, align 4, !tbaa !9
  %120 = add nsw i32 %118, %119
  %121 = ashr i32 %120, 6
  store i32 %121, ptr %29, align 4, !tbaa !9
  call void @llvm.lifetime.start.p0(i64 4, ptr %30) #9
  store i32 0, ptr %30, align 4, !tbaa !9
  %122 = call noundef nonnull align 4 dereferenceable(4) ptr @_ZSt3maxIiERKT_S2_S2_(ptr noundef nonnull align 4 dereferenceable(4) %29, ptr noundef nonnull align 4 dereferenceable(4) %30)
  call void @llvm.lifetime.start.p0(i64 4, ptr %31) #9
  store i32 255, ptr %31, align 4, !tbaa !9
  %123 = call noundef nonnull align 4 dereferenceable(4) ptr @_ZSt3minIiERKT_S2_S2_(ptr noundef nonnull align 4 dereferenceable(4) %122, ptr noundef nonnull align 4 dereferenceable(4) %31)
  %124 = load i32, ptr %123, align 4, !tbaa !9
  %125 = trunc i32 %124 to i8
  %126 = load ptr, ptr %8, align 8, !tbaa !4
  %127 = getelementptr inbounds i8, ptr %126, i64 2
  store i8 %125, ptr %127, align 1, !tbaa !11
  call void @llvm.lifetime.end.p0(i64 4, ptr %31) #9
  call void @llvm.lifetime.end.p0(i64 4, ptr %30) #9
  call void @llvm.lifetime.end.p0(i64 4, ptr %29) #9
  %128 = load ptr, ptr %8, align 8, !tbaa !4
  %129 = getelementptr inbounds i8, ptr %128, i64 3
  store ptr %129, ptr %8, align 8, !tbaa !4
  %130 = load ptr, ptr %10, align 8, !tbaa !4
  %131 = getelementptr inbounds i8, ptr %130, i64 2
  store ptr %131, ptr %10, align 8, !tbaa !4
  %132 = load ptr, ptr %11, align 8, !tbaa !4
  %133 = getelementptr inbounds i8, ptr %132, i64 2
  store ptr %133, ptr %11, align 8, !tbaa !4
  %134 = load ptr, ptr %9, align 8, !tbaa !4
  %135 = getelementptr inbounds i8, ptr %134, i64 2
  store ptr %135, ptr %9, align 8, !tbaa !4
  call void @llvm.lifetime.end.p0(i64 4, ptr %22) #9
  call void @llvm.lifetime.end.p0(i64 4, ptr %21) #9
  call void @llvm.lifetime.end.p0(i64 4, ptr %20) #9
  call void @llvm.lifetime.end.p0(i64 4, ptr %19) #9
  call void @llvm.lifetime.end.p0(i64 4, ptr %18) #9
  call void @llvm.lifetime.end.p0(i64 4, ptr %17) #9
  br label %136

136:                                              ; preds = %58
  %137 = load i32, ptr %16, align 4, !tbaa !9
  %138 = add nsw i32 %137, 1
  store i32 %138, ptr %16, align 4, !tbaa !9
  br label %53, !llvm.loop !19

139:                                              ; preds = %57
  %140 = load ptr, ptr %11, align 8, !tbaa !4
  store ptr %140, ptr %10, align 8, !tbaa !4
  %141 = load ptr, ptr %10, align 8, !tbaa !4
  %142 = load i32, ptr %6, align 4, !tbaa !9
  %143 = sext i32 %142 to i64
  %144 = getelementptr inbounds i8, ptr %141, i64 %143
  store ptr %144, ptr %11, align 8, !tbaa !4
  br label %145

145:                                              ; preds = %139
  %146 = load i32, ptr %14, align 4, !tbaa !9
  %147 = add nsw i32 %146, 1
  store i32 %147, ptr %14, align 4, !tbaa !9
  br label %47, !llvm.loop !20

148:                                              ; preds = %51
  call void @llvm.lifetime.end.p0(i64 4, ptr %13) #9
  call void @llvm.lifetime.end.p0(i64 4, ptr %12) #9
  call void @llvm.lifetime.end.p0(i64 8, ptr %11) #9
  call void @llvm.lifetime.end.p0(i64 8, ptr %10) #9
  call void @llvm.lifetime.end.p0(i64 8, ptr %9) #9
  ret void
}