; Function Attrs: mustprogress nofree norecurse nosync nounwind memory(argmem: readwrite) uwtable
define hidden void @_ZN4ncnn17yuv420sp2rgb_halfEPKhiiPh(ptr noundef readonly captures(none) %0, i32 noundef %1, i32 noundef %2, ptr noundef writeonly captures(none) %3) local_unnamed_addr #0 {
  %5 = sext i32 %1 to i64
  %6 = sdiv i32 %2, 2
  %7 = sdiv i32 %1, 2
  %8 = icmp sgt i32 %2, 1
  %9 = icmp sgt i32 %1, 1
  %or.cond = and i1 %8, %9
  br i1 %or.cond, label %.lr.ph.us.preheader, label %._crit_edge95

.lr.ph.us.preheader:                              ; preds = %4
  %10 = mul nuw nsw i32 %2, %1
  %11 = zext nneg i32 %10 to i64
  %12 = getelementptr inbounds nuw i8, ptr %0, i64 %11
  br label %.lr.ph.us

.lr.ph.us:                                        ; preds = %.lr.ph.us.preheader, %._crit_edge.us
  %.092.us = phi ptr [ %52, %._crit_edge.us ], [ %3, %.lr.ph.us.preheader ]
  %.03991.us = phi ptr [ %54, %._crit_edge.us ], [ %12, %.lr.ph.us.preheader ]
  %.04190.us = phi ptr [ %20, %._crit_edge.us ], [ %0, %.lr.ph.us.preheader ]
  %.04589.us = phi i32 [ %56, %._crit_edge.us ], [ 0, %.lr.ph.us.preheader ]
  %.043.us = getelementptr inbounds nuw i8, ptr %.04190.us, i64 %5
  br label %13

13:                                               ; preds = %.lr.ph.us, %13
  %.186.us = phi ptr [ %.092.us, %.lr.ph.us ], [ %52, %13 ]
  %.14085.us = phi ptr [ %.03991.us, %.lr.ph.us ], [ %54, %13 ]
  %.14284.us = phi ptr [ %.04190.us, %.lr.ph.us ], [ %53, %13 ]
  %.14483.us = phi ptr [ %.043.us, %.lr.ph.us ], [ %20, %13 ]
  %.04682.us = phi i32 [ 0, %.lr.ph.us ], [ %55, %13 ]
  %14 = load i8, ptr %.14284.us, align 1, !tbaa !4
  %15 = zext i8 %14 to i32
  %16 = getelementptr inbounds nuw i8, ptr %.14284.us, i64 1
  %17 = load i8, ptr %16, align 1, !tbaa !4
  %18 = zext i8 %17 to i32
  %19 = add nuw nsw i32 %18, %15
  %20 = getelementptr inbounds nuw i8, ptr %.14483.us, i64 2
  %21 = load i8, ptr %20, align 1, !tbaa !4
  %22 = zext i8 %21 to i32
  %23 = add nuw nsw i32 %19, %22
  %24 = getelementptr inbounds nuw i8, ptr %.14483.us, i64 1
  %25 = load i8, ptr %24, align 1, !tbaa !4
  %26 = zext i8 %25 to i32
  %27 = add nuw nsw i32 %23, %26
  %28 = shl nuw nsw i32 %27, 4
  %29 = load i8, ptr %.14085.us, align 1, !tbaa !4
  %30 = zext i8 %29 to i32
  %31 = add nsw i32 %30, -128
  %32 = getelementptr inbounds nuw i8, ptr %.14085.us, i64 1
  %33 = load i8, ptr %32, align 1, !tbaa !4
  %34 = zext i8 %33 to i32
  %35 = add nsw i32 %34, -128
  %36 = mul nsw i32 %31, 90
  %37 = mul nsw i32 %31, -46
  %38 = mul nsw i32 %35, -22
  %39 = mul nsw i32 %35, 113
  %40 = add nsw i32 %36, %28
  %41 = ashr i32 %40, 6
  %.sroa.speculated75.us = tail call i32 @llvm.smax.i32(i32 %41, i32 0)
  %.sroa.speculated71.us = tail call i32 @llvm.umin.i32(i32 %.sroa.speculated75.us, i32 255)
  %42 = trunc nuw i32 %.sroa.speculated71.us to i8
  store i8 %42, ptr %.186.us, align 1, !tbaa !4
  %43 = add nsw i32 %37, %28
  %44 = add nsw i32 %43, %38
  %45 = ashr i32 %44, 6
  %.sroa.speculated64.us = tail call i32 @llvm.smax.i32(i32 %45, i32 0)
  %.sroa.speculated60.us = tail call i32 @llvm.umin.i32(i32 %.sroa.speculated64.us, i32 255)
  %46 = trunc nuw i32 %.sroa.speculated60.us to i8
  %47 = getelementptr inbounds nuw i8, ptr %.186.us, i64 1
  store i8 %46, ptr %47, align 1, !tbaa !4
  %48 = add nsw i32 %39, %28
  %49 = ashr i32 %48, 6
  %.sroa.speculated53.us = tail call i32 @llvm.smax.i32(i32 %49, i32 0)
  %.sroa.speculated.us = tail call i32 @llvm.umin.i32(i32 %.sroa.speculated53.us, i32 255)
  %50 = trunc nuw i32 %.sroa.speculated.us to i8
  %51 = getelementptr inbounds nuw i8, ptr %.186.us, i64 2
  store i8 %50, ptr %51, align 1, !tbaa !4
  %52 = getelementptr inbounds nuw i8, ptr %.186.us, i64 3
  %53 = getelementptr inbounds nuw i8, ptr %.14284.us, i64 2
  %54 = getelementptr inbounds nuw i8, ptr %.14085.us, i64 2
  %55 = add nuw nsw i32 %.04682.us, 1
  %exitcond.not = icmp eq i32 %55, %7
  br i1 %exitcond.not, label %._crit_edge.us, label %13, !llvm.loop !12

._crit_edge.us:                                   ; preds = %13
  %56 = add nuw nsw i32 %.04589.us, 1
  %exitcond99.not = icmp eq i32 %56, %6
  br i1 %exitcond99.not, label %._crit_edge95, label %.lr.ph.us, !llvm.loop !13

._crit_edge95:                                    ; preds = %._crit_edge.us, %4
  ret void
}